target datalayout = "e-m:e-p270:32:32-p271:32:32-p272:64:64-i64:64-i128:128-f80:128-n8:16:32:64-S128"
target triple = "x86_64-pc-linux-gnu"

%struct.jit_State = type { %struct.GCtrace, ptr, ptr, ptr, ptr, ptr, ptr, i32, i32, i32, i8, i8, %struct.IRType1, i8, %struct.FoldState, ptr, i32, i32, i32, i32, i32, i32, i32, [1 x i32], [5 x %union.TValue], [3 x %union.TValue], ptr, i32, i32, i32, i32, ptr, ptr, i32, i32, i8, ptr, i32, i32, i16, [101 x i16], [258 x i32], [15 x i32], [16 x ptr], [64 x %struct.HotPenalty], i32, [16 x %struct.BPropEntry], i32, %struct.ScEvEntry, ptr, i32, i32, i32, ptr, i32, i32, ptr, ptr, ptr, i64, i64, %union.TValue, ptr, i32, i32 }
%struct.GCtrace = type { %struct.GCRef, i8, i8, i16, i32, i32, %struct.GCRef, ptr, i32, i32, ptr, ptr, %struct.GCRef, %struct.MRef, i32, i32, ptr, i32, i16, i16, i16, i16, i16, i16, i16, i8, i8, i8, i8 }
%struct.GCRef = type { i64 }
%struct.MRef = type { i64 }
%struct.IRType1 = type { i8 }
%struct.FoldState = type { %union.IRIns, [2 x %union.IRIns], [2 x %union.IRIns] }
%union.IRIns = type { %struct.GCRef }
%struct.HotPenalty = type { %struct.MRef, i16, i16 }
%struct.BPropEntry = type { i16, i16, i32 }
%struct.ScEvEntry = type { %struct.MRef, i16, i16, i16, i16, %struct.IRType1, i8 }
%union.TValue = type { i64 }
%struct.anon.0 = type { i32, %struct.IRType1, i8, i8, i8 }
%struct.anon = type { i16, i16, i16, i16 }

; Function Attrs: nounwind uwtable
define internal i32 @fold_simplify_shift_andk(ptr noundef %0) #0 {
  %2 = alloca i32, align 4
  %3 = alloca ptr, align 8
  %4 = alloca ptr, align 8
  %5 = alloca i32, align 4
  %6 = alloca i32, align 4
  %7 = alloca i32, align 4
  store ptr %0, ptr %3, align 8, !tbaa !4
  call void @llvm.lifetime.start.p0(i64 8, ptr %4) #8
  %8 = load ptr, ptr %3, align 8, !tbaa !4
  %9 = getelementptr inbounds nuw %struct.jit_State, ptr %8, i32 0, i32 0
  %10 = getelementptr inbounds nuw %struct.GCtrace, ptr %9, i32 0, i32 7
  %11 = load ptr, ptr %10, align 8, !tbaa !32
  %12 = load ptr, ptr %3, align 8, !tbaa !4
  %13 = getelementptr inbounds nuw %struct.jit_State, ptr %12, i32 0, i32 14
  %14 = getelementptr inbounds nuw %struct.FoldState, ptr %13, i32 0, i32 2
  %15 = getelementptr inbounds [2 x %union.IRIns], ptr %14, i64 0, i64 0
  %16 = getelementptr inbounds nuw %struct.anon, ptr %15, i32 0, i32 1
  %17 = load i16, ptr %16, align 2, !tbaa !29
  %18 = zext i16 %17 to i64
  %19 = getelementptr inbounds nuw %union.IRIns, ptr %11, i64 %18
  store ptr %19, ptr %4, align 8, !tbaa !38
  %20 = load ptr, ptr %3, align 8, !tbaa !4
  %21 = getelementptr inbounds nuw %struct.jit_State, ptr %20, i32 0, i32 14
  %22 = getelementptr inbounds nuw %struct.FoldState, ptr %21, i32 0, i32 2
  %23 = getelementptr inbounds [2 x %union.IRIns], ptr %22, i64 0, i64 0
  %24 = getelementptr inbounds nuw %struct.anon.0, ptr %23, i32 0, i32 1
  %25 = getelementptr inbounds nuw %struct.IRType1, ptr %24, i32 0, i32 0
  %26 = load i8, ptr %25, align 4, !tbaa !29
  %27 = zext i8 %26 to i32
  %28 = and i32 %27, 64
  %29 = icmp ne i32 %28, 0
  br i1 %29, label %30, label %31

30:                                               ; preds = %1
  store i32 0, ptr %2, align 4
  store i32 1, ptr %5, align 4
  br label %83

31:                                               ; preds = %1
  %32 = load ptr, ptr %3, align 8, !tbaa !4
  %33 = getelementptr inbounds nuw %struct.jit_State, ptr %32, i32 0, i32 14
  %34 = getelementptr inbounds nuw %struct.FoldState, ptr %33, i32 0, i32 0
  %35 = getelementptr inbounds nuw %struct.anon.0, ptr %34, i32 0, i32 2
  %36 = load i8, ptr %35, align 1, !tbaa !29
  %37 = zext i8 %36 to i32
  %38 = icmp slt i32 %37, 39
  br i1 %38, label %39, label %40

39:                                               ; preds = %31
  br i1 true, label %41, label %82

40:                                               ; preds = %31
  br i1 true, label %41, label %82

41:                                               ; preds = %40, %39
  %42 = load ptr, ptr %4, align 8, !tbaa !38
  %43 = getelementptr inbounds nuw %struct.anon.0, ptr %42, i32 0, i32 2
  %44 = load i8, ptr %43, align 1, !tbaa !29
  %45 = zext i8 %44 to i32
  %46 = icmp eq i32 %45, 23
  br i1 %46, label %47, label %82

47:                                               ; preds = %41
  call void @llvm.lifetime.start.p0(i64 4, ptr %6) #8
  %48 = load ptr, ptr %3, align 8, !tbaa !4
  %49 = getelementptr inbounds nuw %struct.jit_State, ptr %48, i32 0, i32 14
  %50 = getelementptr inbounds nuw %struct.FoldState, ptr %49, i32 0, i32 0
  %51 = getelementptr inbounds nuw %struct.anon.0, ptr %50, i32 0, i32 1
  %52 = getelementptr inbounds nuw %struct.IRType1, ptr %51, i32 0, i32 0
  %53 = load i8, ptr %52, align 4, !tbaa !29
  %54 = zext i8 %53 to i32
  %55 = and i32 %54, 31
  %56 = lshr i32 6315993, %55
  %57 = and i32 %56, 1
  %58 = icmp ne i32 %57, 0
  %59 = select i1 %58, i32 63, i32 31
  store i32 %59, ptr %6, align 4, !tbaa !30
  call void @llvm.lifetime.start.p0(i64 4, ptr %7) #8
  %60 = load ptr, ptr %4, align 8, !tbaa !38
  %61 = load i32, ptr %60, align 8, !tbaa !29
  %62 = load i32, ptr %6, align 4, !tbaa !30
  %63 = and i32 %61, %62
  store i32 %63, ptr %7, align 4, !tbaa !30
  %64 = load i32, ptr %7, align 4, !tbaa !30
  %65 = load i32, ptr %6, align 4, !tbaa !30
  %66 = icmp eq i32 %64, %65
  br i1 %66, label %67, label %78

67:                                               ; preds = %47
  %68 = load ptr, ptr %3, align 8, !tbaa !4
  %69 = getelementptr inbounds nuw %struct.jit_State, ptr %68, i32 0, i32 14
  %70 = getelementptr inbounds nuw %struct.FoldState, ptr %69, i32 0, i32 2
  %71 = getelementptr inbounds [2 x %union.IRIns], ptr %70, i64 0, i64 0
  %72 = getelementptr inbounds nuw %struct.anon, ptr %71, i32 0, i32 0
  %73 = load i16, ptr %72, align 8, !tbaa !29
  %74 = load ptr, ptr %3, align 8, !tbaa !4
  %75 = getelementptr inbounds nuw %struct.jit_State, ptr %74, i32 0, i32 14
  %76 = getelementptr inbounds nuw %struct.FoldState, ptr %75, i32 0, i32 0
  %77 = getelementptr inbounds nuw %struct.anon, ptr %76, i32 0, i32 1
  store i16 %73, ptr %77, align 2, !tbaa !29
  store i32 1, ptr %2, align 4
  store i32 1, ptr %5, align 4
  br label %79

78:                                               ; preds = %47
  store i32 0, ptr %5, align 4
  br label %79

79:                                               ; preds = %78, %67
  call void @llvm.lifetime.end.p0(i64 4, ptr %7) #8
  call void @llvm.lifetime.end.p0(i64 4, ptr %6) #8
  %80 = load i32, ptr %5, align 4
  switch i32 %80, label %83 [
    i32 0, label %81
  ]

81:                                               ; preds = %79
  br label %82

82:                                               ; preds = %81, %41, %40, %39
  store i32 0, ptr %2, align 4
  store i32 1, ptr %5, align 4
  br label %83

83:                                               ; preds = %82, %79, %30
  call void @llvm.lifetime.end.p0(i64 8, ptr %4) #8
  %84 = load i32, ptr %2, align 4
  ret i32 %84
}