; Function Attrs: mustprogress nofree norecurse nosync nounwind willreturn memory(read, argmem: readwrite, inaccessiblemem: none) uwtable
define internal range(i32 0, 2) i32 @fold_simplify_shift_andk(ptr noundef captures(none) %0) #8 {
  %2 = getelementptr inbounds nuw i8, ptr %0, i64 32
  %3 = load ptr, ptr %2, align 8, !tbaa !30
  %4 = getelementptr inbounds nuw i8, ptr %0, i64 208
  %5 = getelementptr inbounds nuw i8, ptr %0, i64 210
  %6 = load i16, ptr %5, align 2, !tbaa !28
  %7 = zext i16 %6 to i64
  %8 = getelementptr inbounds nuw %union.IRIns, ptr %3, i64 %7
  %9 = getelementptr inbounds nuw i8, ptr %0, i64 212
  %10 = load i8, ptr %9, align 4, !tbaa !28
  %11 = and i8 %10, 64
  %.not = icmp eq i8 %11, 0
  br i1 %.not, label %12, label %.critedge

12:                                               ; preds = %1
  %13 = getelementptr inbounds nuw i8, ptr %8, i64 5
  %14 = load i8, ptr %13, align 1, !tbaa !28
  %15 = icmp eq i8 %14, 23
  br i1 %15, label %16, label %.critedge

16:                                               ; preds = %12
  %17 = getelementptr inbounds nuw i8, ptr %0, i64 188
  %18 = load i8, ptr %17, align 4, !tbaa !28
  %19 = and i8 %18, 31
  %20 = zext nneg i8 %19 to i32
  %21 = shl nuw i32 1, %20
  %22 = and i32 %21, 6315993
  %.not13 = icmp eq i32 %22, 0
  %23 = load i32, ptr %8, align 8, !tbaa !28
  %24 = select i1 %.not13, i32 -32, i32 -64
  %25 = or i32 %24, %23
  %.not14 = icmp eq i32 %25, -1
  br i1 %.not14, label %26, label %.critedge

26:                                               ; preds = %16
  %27 = load i16, ptr %4, align 8, !tbaa !28
  %28 = getelementptr inbounds nuw i8, ptr %0, i64 186
  store i16 %27, ptr %28, align 2, !tbaa !28
  br label %.critedge

.critedge:                                        ; preds = %12, %16, %26, %1
  %.0 = phi i32 [ 1, %26 ], [ 0, %1 ], [ 0, %16 ], [ 0, %12 ]
  ret i32 %.0
}